target datalayout = "e-m:e-p270:32:32-p271:32:32-p272:64:64-i64:64-i128:128-f80:128-n8:16:32:64-S128"
target triple = "x86_64-pc-linux-gnu"

%struct.slurm_conf_t = type { i64, ptr, i16, ptr, ptr, ptr, ptr, ptr, i16, ptr, ptr, ptr, ptr, ptr, ptr, ptr, i16, ptr, ptr, ptr, ptr, i16, ptr, ptr, ptr, i64, ptr, ptr, ptr, ptr, i16, ptr, ptr, i16, i32, ptr, i32, ptr, i32, i32, ptr, ptr, i64, i64, ptr, i16, i16, ptr, i32, i32, ptr, i32, ptr, i32, i16, i16, i16, ptr, i16, i16, ptr, ptr, i32, i16, i16, ptr, i32, i16, ptr, ptr, ptr, ptr, i16, ptr, ptr, ptr, ptr, i32, ptr, ptr, ptr, ptr, i16, i16, ptr, i32, i32, i32, i16, i16, ptr, ptr, i16, ptr, ptr, i32, i32, i32, i32, i32, i64, i32, i32, i16, ptr, ptr, i32, ptr, ptr, ptr, i16, i32, ptr, ptr, i16, ptr, ptr, i32, i16, ptr, ptr, ptr, ptr, i32, i32, i16, i16, i32, ptr, i16, ptr, i32, i32, i32, i32, i32, i32, ptr, i16, ptr, ptr, i32, i16, ptr, i32, i16, i16, ptr, ptr, ptr, i16, ptr, ptr, ptr, ptr, i16, i16, ptr, i16, ptr, i16, ptr, i16, ptr, i16, ptr, ptr, ptr, ptr, i16, ptr, ptr, ptr, i32, ptr, i32, ptr, ptr, i16, ptr, ptr, i32, i16, ptr, ptr, i16, i16, ptr, i16, ptr, ptr, ptr, i32, ptr, i16, i16, ptr, ptr, ptr, ptr, ptr, ptr, ptr, ptr, i16, i32, i16, ptr, ptr, ptr, ptr, i32, ptr, ptr, ptr, i16, ptr, ptr, ptr, i16, ptr, i16, ptr, i16, i16, ptr }
%union.pthread_mutex_t = type { %struct.__pthread_mutex_s }
%struct.__pthread_mutex_s = type { i32, i32, i32, i32, i32, i16, i16, %struct.__pthread_internal_list }
%struct.__pthread_internal_list = type { ptr, ptr }
%struct.job_record = type { i32, ptr, ptr, ptr, ptr, i16, i32, i32, i32, ptr, i32, ptr, ptr, i16, ptr, double, i64, ptr, ptr, ptr, ptr, ptr, ptr, i32, ptr, i32, i64, i64, i32, i32, ptr, i16, i64, i64, i8, i32, ptr, ptr, ptr, ptr, ptr, ptr, ptr, ptr, i32, ptr, ptr, i32, ptr, i32, ptr, i32, ptr, i32, ptr, ptr, ptr, ptr, ptr, ptr, i32, i16, i64, ptr, ptr, ptr, ptr, %struct.acct_policy_limit_set_t, i16, ptr, ptr, ptr, ptr, ptr, i32, ptr, ptr, ptr, ptr, ptr, i32, i32, ptr, ptr, ptr, i16, ptr, ptr, i8, ptr, ptr, i64, i64, i8, i32, i32, i8, i32, ptr, i32, i64, i32, ptr, ptr, ptr, i8, i16, i64, i32, ptr, ptr, ptr, ptr, ptr, i16, i32, ptr, ptr, ptr, ptr, i32, ptr, i32, i16, i64, ptr, i32, i32, ptr, i64, ptr, ptr, i64, i32, i32, i64, i32, i32, ptr, ptr, ptr, ptr, ptr, ptr, ptr, ptr, ptr, ptr, ptr, ptr, i32, ptr, i16, i16, i16, i16, ptr, i32, i32, i8, i64 }
%struct.acct_policy_limit_set_t = type { i16, i16, ptr }

@plugin_type = dso_local constant [14 x i8] c"select/linear\00", align 1
@slurm_conf = dso_local global %struct.slurm_conf_t zeroinitializer, align 8
@cr_mutex = internal global %union.pthread_mutex_t zeroinitializer, align 8
@.str.1 = private unnamed_addr constant [29 x i8] c"%s: pthread_mutex_lock(): %m\00", align 1
@cr_ptr = internal global ptr null, align 8
@.str.2 = private unnamed_addr constant [31 x i8] c"%s: pthread_mutex_unlock(): %m\00", align 1
@__func__.select_p_job_begin = private unnamed_addr constant [19 x i8] c"select_p_job_begin\00", align 1
@.str.8 = private unnamed_addr constant [19 x i8] c"%s: %s: Alloc GRES\00", align 1

; Function Attrs: nounwind uwtable
define dso_local i32 @select_p_job_begin(ptr noundef %0) #0 {
  %2 = alloca ptr, align 8
  %3 = alloca i32, align 4
  %4 = alloca i32, align 4
  %5 = alloca i32, align 4
  store ptr %0, ptr %2, align 8
  call void @llvm.lifetime.start.p0(i64 4, ptr %3) #8
  store i32 0, ptr %3, align 4
  br label %6

6:                                                ; preds = %1
  call void @llvm.lifetime.start.p0(i64 4, ptr %4) #8
  %7 = call i32 @pthread_mutex_lock(ptr noundef @cr_mutex) #8
  store i32 %7, ptr %4, align 4
  %8 = load i32, ptr %4, align 4
  %9 = icmp ne i32 %8, 0
  br i1 %9, label %10, label %13

10:                                               ; preds = %6
  %11 = load i32, ptr %4, align 4
  %12 = call ptr @__errno_location() #9
  store i32 %11, ptr %12, align 4
  call void (ptr, ...) @slurm_fatal_abort(ptr noundef @.str.1, ptr noundef @__func__.select_p_job_begin) #10
  unreachable

13:                                               ; preds = %6
  call void @llvm.lifetime.end.p0(i64 4, ptr %4) #8
  br label %14

14:                                               ; preds = %13
  br label %15

15:                                               ; preds = %14
  %16 = load ptr, ptr @cr_ptr, align 8
  %17 = icmp eq ptr %16, null
  br i1 %17, label %18, label %19

18:                                               ; preds = %15
  call void @_init_node_cr()
  br label %19

19:                                               ; preds = %18, %15
  %20 = load i32, ptr %3, align 4
  %21 = icmp eq i32 %20, 0
  br i1 %21, label %22, label %26

22:                                               ; preds = %19
  %23 = load ptr, ptr @cr_ptr, align 8
  %24 = load ptr, ptr %2, align 8
  %25 = call i32 @_add_job_to_nodes(ptr noundef %23, ptr noundef %24, ptr noundef @__func__.select_p_job_begin, i32 noundef 1)
  store i32 %25, ptr %3, align 4
  br label %26

26:                                               ; preds = %22, %19
  %27 = load ptr, ptr %2, align 8
  %28 = getelementptr inbounds nuw %struct.job_record, ptr %27, i32 0, i32 41
  %29 = load ptr, ptr %28, align 8
  %30 = load ptr, ptr %2, align 8
  %31 = getelementptr inbounds nuw %struct.job_record, ptr %30, i32 0, i32 53
  %32 = load i32, ptr %31, align 8
  call void @gres_job_state_log(ptr noundef %29, i32 noundef %32)
  %33 = load i64, ptr getelementptr inbounds nuw (%struct.slurm_conf_t, ptr @slurm_conf, i32 0, i32 42), align 8
  %34 = and i64 %33, 64
  %35 = icmp ne i64 %34, 0
  br i1 %35, label %36, label %52

36:                                               ; preds = %26
  %37 = load ptr, ptr %2, align 8
  %38 = getelementptr inbounds nuw %struct.job_record, ptr %37, i32 0, i32 43
  %39 = load ptr, ptr %38, align 8
  %40 = icmp ne ptr %39, null
  br i1 %40, label %41, label %52

41:                                               ; preds = %36
  br label %42

42:                                               ; preds = %41
  br label %43

43:                                               ; preds = %42
  %44 = call i32 @slurm_get_log_level()
  %45 = icmp sge i32 %44, 3
  br i1 %45, label %46, label %47

46:                                               ; preds = %43
  call void (i32, ptr, ...) @slurm_log_var(i32 noundef 3, ptr noundef @.str.8, ptr noundef @plugin_type, ptr noundef @__func__.select_p_job_begin)
  br label %47

47:                                               ; preds = %46, %43
  br label %48

48:                                               ; preds = %47
  br label %49

49:                                               ; preds = %48
  br label %50

50:                                               ; preds = %49
  br label %51

51:                                               ; preds = %50
  br label %52

52:                                               ; preds = %51, %36, %26
  %53 = load ptr, ptr %2, align 8
  %54 = getelementptr inbounds nuw %struct.job_record, ptr %53, i32 0, i32 43
  %55 = load ptr, ptr %54, align 8
  %56 = load ptr, ptr %2, align 8
  %57 = getelementptr inbounds nuw %struct.job_record, ptr %56, i32 0, i32 53
  %58 = load i32, ptr %57, align 8
  call void @gres_job_state_log(ptr noundef %55, i32 noundef %58)
  br label %59

59:                                               ; preds = %52
  call void @llvm.lifetime.start.p0(i64 4, ptr %5) #8
  %60 = call i32 @pthread_mutex_unlock(ptr noundef @cr_mutex) #8
  store i32 %60, ptr %5, align 4
  %61 = load i32, ptr %5, align 4
  %62 = icmp ne i32 %61, 0
  br i1 %62, label %63, label %66

63:                                               ; preds = %59
  %64 = load i32, ptr %5, align 4
  %65 = call ptr @__errno_location() #9
  store i32 %64, ptr %65, align 4
  call void (ptr, ...) @slurm_fatal_abort(ptr noundef @.str.2, ptr noundef @__func__.select_p_job_begin) #10
  unreachable

66:                                               ; preds = %59
  call void @llvm.lifetime.end.p0(i64 4, ptr %5) #8
  br label %67

67:                                               ; preds = %66
  br label %68

68:                                               ; preds = %67
  %69 = load i32, ptr %3, align 4
  call void @llvm.lifetime.end.p0(i64 4, ptr %3) #8
  ret i32 %69
}