; Function Attrs: nounwind uwtable
define dso_local range(i32 -1, 1) i32 @select_p_job_begin(ptr noundef %0) local_unnamed_addr #0 {
  %2 = tail call i32 @pthread_mutex_lock(ptr noundef nonnull @cr_mutex) #11
  %.not = icmp eq i32 %2, 0
  br i1 %.not, label %5, label %3

3:                                                ; preds = %1
  %4 = tail call ptr @__errno_location() #12
  store i32 %2, ptr %4, align 4
  tail call void (ptr, ...) @slurm_fatal_abort(ptr noundef nonnull @.str.1, ptr noundef nonnull @__func__.select_p_job_begin) #13
  unreachable

5:                                                ; preds = %1
  %6 = load ptr, ptr @cr_ptr, align 8
  %7 = icmp eq ptr %6, null
  br i1 %7, label %8, label %9

8:                                                ; preds = %5
  tail call fastcc void @_init_node_cr()
  %.pre = load ptr, ptr @cr_ptr, align 8
  br label %9

9:                                                ; preds = %5, %8
  %10 = phi ptr [ %6, %5 ], [ %.pre, %8 ]
  %11 = tail call fastcc i32 @_add_job_to_nodes(ptr noundef %10, ptr noundef %0, ptr noundef nonnull @__func__.select_p_job_begin, i32 noundef 1)
  %12 = getelementptr inbounds nuw i8, ptr %0, i64 296
  %13 = load ptr, ptr %12, align 8
  %14 = getelementptr inbounds nuw i8, ptr %0, i64 392
  %15 = load i32, ptr %14, align 8
  tail call void @gres_job_state_log(ptr noundef %13, i32 noundef %15) #11
  %16 = load i64, ptr getelementptr inbounds nuw (i8, ptr @slurm_conf, i64 320), align 8
  %17 = and i64 %16, 64
  %.not13 = icmp eq i64 %17, 0
  br i1 %.not13, label %25, label %18

18:                                               ; preds = %9
  %19 = getelementptr inbounds nuw i8, ptr %0, i64 312
  %20 = load ptr, ptr %19, align 8
  %.not14 = icmp eq ptr %20, null
  br i1 %.not14, label %25, label %21

21:                                               ; preds = %18
  %22 = tail call i32 @slurm_get_log_level() #11
  %23 = icmp sgt i32 %22, 2
  br i1 %23, label %24, label %25

24:                                               ; preds = %21
  tail call void (i32, ptr, ...) @slurm_log_var(i32 noundef 3, ptr noundef nonnull @.str.8, ptr noundef nonnull @plugin_type, ptr noundef nonnull @__func__.select_p_job_begin) #11
  br label %25

25:                                               ; preds = %21, %24, %18, %9
  %26 = getelementptr inbounds nuw i8, ptr %0, i64 312
  %27 = load ptr, ptr %26, align 8
  %28 = load i32, ptr %14, align 8
  tail call void @gres_job_state_log(ptr noundef %27, i32 noundef %28) #11
  %29 = tail call i32 @pthread_mutex_unlock(ptr noundef nonnull @cr_mutex) #11
  %.not15 = icmp eq i32 %29, 0
  br i1 %.not15, label %32, label %30

30:                                               ; preds = %25
  %31 = tail call ptr @__errno_location() #12
  store i32 %29, ptr %31, align 4
  tail call void (ptr, ...) @slurm_fatal_abort(ptr noundef nonnull @.str.2, ptr noundef nonnull @__func__.select_p_job_begin) #13
  unreachable

32:                                               ; preds = %25
  ret i32 %11
}